; ModuleID = '4/2037.c'
source_filename = "4/2037.c"
target datalayout = "e-m:e-p270:32:32-p271:32:32-p272:64:64-i64:64-f80:128-n8:16:32:64-S128"
target triple = "x86_64-pc-linux-gnu"

@.str = private unnamed_addr constant [6 x i8] c"%d %d\00", align 1
@.str.1 = private unnamed_addr constant [3 x i8] c"%d\00", align 1
@.str.2 = private unnamed_addr constant [4 x i8] c"%d\0A\00", align 1

; Function Attrs: noinline nounwind uwtable
define dso_local i32 @main() #0 {
  %1 = alloca i32, align 4
  %2 = alloca [200 x [200 x i32]], align 16
  %3 = alloca i32, align 4
  %4 = alloca i32, align 4
  %5 = alloca i32, align 4
  %6 = alloca i32, align 4
  %7 = alloca i32, align 4
  %8 = alloca i32, align 4
  store i32 0, i32* %1, align 4
  store i32 0, i32* %6, align 4
  %9 = call i32 (i8*, ...) @__isoc99_scanf(i8* getelementptr inbounds ([6 x i8], [6 x i8]* @.str, i64 0, i64 0), i32* %7, i32* %8)
  store i32 0, i32* %3, align 4
  br label %10

10:                                               ; preds = %31, %0
  %11 = load i32, i32* %3, align 4
  %12 = load i32, i32* %7, align 4
  %13 = icmp slt i32 %11, %12
  br i1 %13, label %14, label %34

14:                                               ; preds = %10
  store i32 0, i32* %4, align 4
  br label %15

15:                                               ; preds = %27, %14
  %16 = load i32, i32* %4, align 4
  %17 = load i32, i32* %8, align 4
  %18 = icmp slt i32 %16, %17
  br i1 %18, label %19, label %30

19:                                               ; preds = %15
  %20 = load i32, i32* %3, align 4
  %21 = sext i32 %20 to i64
  %22 = getelementptr inbounds [200 x [200 x i32]], [200 x [200 x i32]]* %2, i64 0, i64 %21
  %23 = load i32, i32* %4, align 4
  %24 = sext i32 %23 to i64
  %25 = getelementptr inbounds [200 x i32], [200 x i32]* %22, i64 0, i64 %24
  %26 = call i32 (i8*, ...) @__isoc99_scanf(i8* getelementptr inbounds ([3 x i8], [3 x i8]* @.str.1, i64 0, i64 0), i32* %25)
  br label %27

27:                                               ; preds = %19
  %28 = load i32, i32* %4, align 4
  %29 = add nsw i32 %28, 1
  store i32 %29, i32* %4, align 4
  br label %15

30:                                               ; preds = %15
  br label %31

31:                                               ; preds = %30
  %32 = load i32, i32* %3, align 4
  %33 = add nsw i32 %32, 1
  store i32 %33, i32* %3, align 4
  br label %10

34:                                               ; preds = %10
  store i32 0, i32* %4, align 4
  br label %35

35:                                               ; preds = %65, %34
  %36 = load i32, i32* %4, align 4
  %37 = load i32, i32* %8, align 4
  %38 = icmp slt i32 %36, %37
  br i1 %38, label %39, label %68

39:                                               ; preds = %35
  store i32 0, i32* %5, align 4
  br label %40

40:                                               ; preds = %61, %39
  %41 = load i32, i32* %5, align 4
  %42 = load i32, i32* %7, align 4
  %43 = icmp sge i32 %41, %42
  br i1 %43, label %49, label %44

44:                                               ; preds = %40
  %45 = load i32, i32* %4, align 4
  %46 = load i32, i32* %5, align 4
  %47 = sub nsw i32 %45, %46
  %48 = icmp slt i32 %47, 0
  br i1 %48, label %49, label %50

49:                                               ; preds = %44, %40
  br label %64

50:                                               ; preds = %44
  %51 = load i32, i32* %5, align 4
  %52 = sext i32 %51 to i64
  %53 = getelementptr inbounds [200 x [200 x i32]], [200 x [200 x i32]]* %2, i64 0, i64 %52
  %54 = load i32, i32* %4, align 4
  %55 = load i32, i32* %5, align 4
  %56 = sub nsw i32 %54, %55
  %57 = sext i32 %56 to i64
  %58 = getelementptr inbounds [200 x i32], [200 x i32]* %53, i64 0, i64 %57
  %59 = load i32, i32* %58, align 4
  %60 = call i32 (i8*, ...) @printf(i8* getelementptr inbounds ([4 x i8], [4 x i8]* @.str.2, i64 0, i64 0), i32 %59)
  br label %61

61:                                               ; preds = %50
  %62 = load i32, i32* %5, align 4
  %63 = add nsw i32 %62, 1
  store i32 %63, i32* %5, align 4
  br label %40

64:                                               ; preds = %49
  br label %65

65:                                               ; preds = %64
  %66 = load i32, i32* %4, align 4
  %67 = add nsw i32 %66, 1
  store i32 %67, i32* %4, align 4
  br label %35

68:                                               ; preds = %35
  store i32 1, i32* %4, align 4
  br label %69

69:                                               ; preds = %105, %68
  %70 = load i32, i32* %4, align 4
  %71 = load i32, i32* %7, align 4
  %72 = icmp slt i32 %70, %71
  br i1 %72, label %73, label %108

73:                                               ; preds = %69
  store i32 1, i32* %5, align 4
  br label %74

74:                                               ; preds = %101, %73
  %75 = load i32, i32* %5, align 4
  %76 = load i32, i32* %4, align 4
  %77 = add nsw i32 %75, %76
  %78 = sub nsw i32 %77, 1
  %79 = load i32, i32* %7, align 4
  %80 = icmp sge i32 %78, %79
  br i1 %80, label %86, label %81

81:                                               ; preds = %74
  %82 = load i32, i32* %8, align 4
  %83 = load i32, i32* %5, align 4
  %84 = sub nsw i32 %82, %83
  %85 = icmp slt i32 %84, 0
  br i1 %85, label %86, label %87

86:                                               ; preds = %81, %74
  br label %104

87:                                               ; preds = %81
  %88 = load i32, i32* %5, align 4
  %89 = load i32, i32* %4, align 4
  %90 = add nsw i32 %88, %89
  %91 = sub nsw i32 %90, 1
  %92 = sext i32 %91 to i64
  %93 = getelementptr inbounds [200 x [200 x i32]], [200 x [200 x i32]]* %2, i64 0, i64 %92
  %94 = load i32, i32* %8, align 4
  %95 = load i32, i32* %5, align 4
  %96 = sub nsw i32 %94, %95
  %97 = sext i32 %96 to i64
  %98 = getelementptr inbounds [200 x i32], [200 x i32]* %93, i64 0, i64 %97
  %99 = load i32, i32* %98, align 4
  %100 = call i32 (i8*, ...) @printf(i8* getelementptr inbounds ([4 x i8], [4 x i8]* @.str.2, i64 0, i64 0), i32 %99)
  br label %101

101:                                              ; preds = %87
  %102 = load i32, i32* %5, align 4
  %103 = add nsw i32 %102, 1
  store i32 %103, i32* %5, align 4
  br label %74

104:                                              ; preds = %86
  br label %105

105:                                              ; preds = %104
  %106 = load i32, i32* %4, align 4
  %107 = add nsw i32 %106, 1
  store i32 %107, i32* %4, align 4
  br label %69

108:                                              ; preds = %69
  ret i32 0
}

declare dso_local i32 @__isoc99_scanf(i8*, ...) #1

declare dso_local i32 @printf(i8*, ...) #1


!llvm.module.flags = !{!0}
!llvm.ident = !{!1}

!0 = !{i32 1, !"wchar_size", i32 4}
!1 = !{!"clang version 10.0.0-4ubuntu1 "}
